target datalayout = "e-m:e-p270:32:32-p271:32:32-p272:64:64-i64:64-i128:128-f80:128-n8:16:32:64-S128"
target triple = "x86_64-pc-linux-gnu"

%struct.HLSContext = type { ptr, ptr, i32, ptr, i32, ptr, i32, ptr, i64, i32, i32, i32, i32, i64, i64, ptr, ptr, ptr, ptr, ptr, i32, i32, i32, i32, i32, i32, ptr, %struct.HLSCryptoContext }
%struct.HLSCryptoContext = type { ptr, [16 x i8], [16 x i8] }
%struct.variant = type { i32, i32, ptr, [64 x i8], [64 x i8], [64 x i8] }
%struct.variant_info = type { [20 x i8], [64 x i8], [64 x i8], [64 x i8] }

; Function Attrs: inlinehint nounwind willreturn memory(read) uwtable
define available_externally i32 @atoi(ptr noundef nonnull %0) #9 {
  %2 = alloca ptr, align 8
  store ptr %0, ptr %2, align 8, !tbaa !125
  %3 = load ptr, ptr %2, align 8, !tbaa !125
  %4 = call i64 @strtol(ptr noundef %3, ptr noundef null, i32 noundef 10) #15
  %5 = trunc i64 %4 to i32
  ret i32 %5
}

; Function Attrs: nounwind uwtable
define internal ptr @new_variant(ptr noundef %0, ptr noundef %1, ptr noundef %2, ptr noundef %3) #0 {
  %5 = alloca ptr, align 8
  %6 = alloca ptr, align 8
  %7 = alloca ptr, align 8
  %8 = alloca ptr, align 8
  %9 = alloca ptr, align 8
  %10 = alloca ptr, align 8
  %11 = alloca ptr, align 8
  %12 = alloca i32, align 4
  %13 = alloca ptr, align 8
  %14 = alloca ptr, align 8
  %15 = alloca ptr, align 8
  %16 = alloca ptr, align 8
  store ptr %0, ptr %6, align 8, !tbaa !33
  store ptr %1, ptr %7, align 8, !tbaa !241
  store ptr %2, ptr %8, align 8, !tbaa !125
  store ptr %3, ptr %9, align 8, !tbaa !125
  call void @llvm.lifetime.start.p0(i64 8, ptr %10) #15
  call void @llvm.lifetime.start.p0(i64 8, ptr %11) #15
  %17 = load ptr, ptr %6, align 8, !tbaa !33
  %18 = load ptr, ptr %8, align 8, !tbaa !125
  %19 = load ptr, ptr %9, align 8, !tbaa !125
  %20 = call ptr @new_playlist(ptr noundef %17, ptr noundef %18, ptr noundef %19)
  store ptr %20, ptr %11, align 8, !tbaa !54
  %21 = load ptr, ptr %11, align 8, !tbaa !54
  %22 = icmp ne ptr %21, null
  br i1 %22, label %24, label %23

23:                                               ; preds = %4
  store ptr null, ptr %5, align 8
  store i32 1, ptr %12, align 4
  br label %82

24:                                               ; preds = %4
  %25 = call noalias ptr @av_mallocz(i64 noundef 208)
  store ptr %25, ptr %10, align 8, !tbaa !71
  %26 = load ptr, ptr %10, align 8, !tbaa !71
  %27 = icmp ne ptr %26, null
  br i1 %27, label %29, label %28

28:                                               ; preds = %24
  store ptr null, ptr %5, align 8
  store i32 1, ptr %12, align 4
  br label %82

29:                                               ; preds = %24
  %30 = load ptr, ptr %7, align 8, !tbaa !241
  %31 = icmp ne ptr %30, null
  br i1 %31, label %32, label %60

32:                                               ; preds = %29
  %33 = load ptr, ptr %7, align 8, !tbaa !241
  %34 = getelementptr inbounds nuw %struct.variant_info, ptr %33, i32 0, i32 0
  %35 = getelementptr inbounds [20 x i8], ptr %34, i64 0, i64 0
  %36 = call i32 @atoi(ptr noundef %35) #14
  %37 = load ptr, ptr %10, align 8, !tbaa !71
  %38 = getelementptr inbounds nuw %struct.variant, ptr %37, i32 0, i32 0
  store i32 %36, ptr %38, align 8, !tbaa !87
  %39 = load ptr, ptr %10, align 8, !tbaa !71
  %40 = getelementptr inbounds nuw %struct.variant, ptr %39, i32 0, i32 3
  %41 = getelementptr inbounds [64 x i8], ptr %40, i64 0, i64 0
  %42 = load ptr, ptr %7, align 8, !tbaa !241
  %43 = getelementptr inbounds nuw %struct.variant_info, ptr %42, i32 0, i32 1
  %44 = getelementptr inbounds [64 x i8], ptr %43, i64 0, i64 0
  %45 = call ptr @strcpy(ptr noundef %41, ptr noundef %44) #15
  %46 = load ptr, ptr %10, align 8, !tbaa !71
  %47 = getelementptr inbounds nuw %struct.variant, ptr %46, i32 0, i32 4
  %48 = getelementptr inbounds [64 x i8], ptr %47, i64 0, i64 0
  %49 = load ptr, ptr %7, align 8, !tbaa !241
  %50 = getelementptr inbounds nuw %struct.variant_info, ptr %49, i32 0, i32 2
  %51 = getelementptr inbounds [64 x i8], ptr %50, i64 0, i64 0
  %52 = call ptr @strcpy(ptr noundef %48, ptr noundef %51) #15
  %53 = load ptr, ptr %10, align 8, !tbaa !71
  %54 = getelementptr inbounds nuw %struct.variant, ptr %53, i32 0, i32 5
  %55 = getelementptr inbounds [64 x i8], ptr %54, i64 0, i64 0
  %56 = load ptr, ptr %7, align 8, !tbaa !241
  %57 = getelementptr inbounds nuw %struct.variant_info, ptr %56, i32 0, i32 3
  %58 = getelementptr inbounds [64 x i8], ptr %57, i64 0, i64 0
  %59 = call ptr @strcpy(ptr noundef %55, ptr noundef %58) #15
  br label %60

60:                                               ; preds = %32, %29
  br label %61

61:                                               ; preds = %60
  call void @llvm.lifetime.start.p0(i64 8, ptr %13) #15
  %62 = load ptr, ptr %6, align 8, !tbaa !33
  %63 = getelementptr inbounds nuw %struct.HLSContext, ptr %62, i32 0, i32 3
  store ptr %63, ptr %13, align 8, !tbaa !255
  call void @llvm.lifetime.start.p0(i64 8, ptr %14) #15
  %64 = load ptr, ptr %10, align 8, !tbaa !71
  store ptr %64, ptr %14, align 8, !tbaa !71
  %65 = load ptr, ptr %13, align 8, !tbaa !255
  %66 = load ptr, ptr %6, align 8, !tbaa !33
  %67 = getelementptr inbounds nuw %struct.HLSContext, ptr %66, i32 0, i32 2
  %68 = load ptr, ptr %14, align 8, !tbaa !71
  call void @av_dynarray_add(ptr noundef %65, ptr noundef %67, ptr noundef %68)
  call void @llvm.lifetime.end.p0(i64 8, ptr %14) #15
  call void @llvm.lifetime.end.p0(i64 8, ptr %13) #15
  br label %69

69:                                               ; preds = %61
  br label %70

70:                                               ; preds = %69
  br label %71

71:                                               ; preds = %70
  call void @llvm.lifetime.start.p0(i64 8, ptr %15) #15
  %72 = load ptr, ptr %10, align 8, !tbaa !71
  %73 = getelementptr inbounds nuw %struct.variant, ptr %72, i32 0, i32 2
  store ptr %73, ptr %15, align 8, !tbaa !209
  call void @llvm.lifetime.start.p0(i64 8, ptr %16) #15
  %74 = load ptr, ptr %11, align 8, !tbaa !54
  store ptr %74, ptr %16, align 8, !tbaa !54
  %75 = load ptr, ptr %15, align 8, !tbaa !209
  %76 = load ptr, ptr %10, align 8, !tbaa !71
  %77 = getelementptr inbounds nuw %struct.variant, ptr %76, i32 0, i32 1
  %78 = load ptr, ptr %16, align 8, !tbaa !54
  call void @av_dynarray_add(ptr noundef %75, ptr noundef %77, ptr noundef %78)
  call void @llvm.lifetime.end.p0(i64 8, ptr %16) #15
  call void @llvm.lifetime.end.p0(i64 8, ptr %15) #15
  br label %79

79:                                               ; preds = %71
  br label %80

80:                                               ; preds = %79
  %81 = load ptr, ptr %10, align 8, !tbaa !71
  store ptr %81, ptr %5, align 8
  store i32 1, ptr %12, align 4
  br label %82

82:                                               ; preds = %80, %28, %23
  call void @llvm.lifetime.end.p0(i64 8, ptr %11) #15
  call void @llvm.lifetime.end.p0(i64 8, ptr %10) #15
  %83 = load ptr, ptr %5, align 8
  ret ptr %83
}