; Function Attrs: nounwind uwtable
define internal fastcc ptr @new_variant(ptr noundef %0, ptr noundef readonly captures(address_is_null) %1, ptr noundef %2, ptr noundef %3) unnamed_addr #0 {
  %5 = tail call fastcc ptr @new_playlist(ptr noundef %0, ptr noundef %2, ptr noundef %3)
  %.not = icmp eq ptr %5, null
  br i1 %.not, label %26, label %6

6:                                                ; preds = %4
  %7 = tail call noalias ptr @av_mallocz(i64 noundef 208) #16
  %.not29 = icmp eq ptr %7, null
  br i1 %.not29, label %26, label %8

8:                                                ; preds = %6
  %.not30 = icmp eq ptr %1, null
  br i1 %.not30, label %21, label %9

9:                                                ; preds = %8
  %10 = tail call i64 @strtol(ptr noundef nonnull captures(none) %1, ptr noundef null, i32 noundef 10) #16
  %11 = trunc i64 %10 to i32
  store i32 %11, ptr %7, align 8, !tbaa !86
  %12 = getelementptr inbounds nuw i8, ptr %7, i64 16
  %13 = getelementptr inbounds nuw i8, ptr %1, i64 20
  %14 = tail call ptr @strcpy(ptr noundef nonnull dereferenceable(1) %12, ptr noundef nonnull dereferenceable(1) %13) #16
  %15 = getelementptr inbounds nuw i8, ptr %7, i64 80
  %16 = getelementptr inbounds nuw i8, ptr %1, i64 84
  %17 = tail call ptr @strcpy(ptr noundef nonnull dereferenceable(1) %15, ptr noundef nonnull dereferenceable(1) %16) #16
  %18 = getelementptr inbounds nuw i8, ptr %7, i64 144
  %19 = getelementptr inbounds nuw i8, ptr %1, i64 148
  %20 = tail call ptr @strcpy(ptr noundef nonnull dereferenceable(1) %18, ptr noundef nonnull dereferenceable(1) %19) #16
  br label %21

21:                                               ; preds = %8, %9
  %22 = getelementptr inbounds nuw i8, ptr %0, i64 24
  %23 = getelementptr inbounds nuw i8, ptr %0, i64 16
  tail call void @av_dynarray_add(ptr noundef nonnull %22, ptr noundef nonnull %23, ptr noundef nonnull %7) #16
  %24 = getelementptr inbounds nuw i8, ptr %7, i64 8
  %25 = getelementptr inbounds nuw i8, ptr %7, i64 4
  tail call void @av_dynarray_add(ptr noundef nonnull %24, ptr noundef nonnull %25, ptr noundef nonnull %5) #16
  br label %26

26:                                               ; preds = %6, %4, %21
  %.0 = phi ptr [ %7, %21 ], [ null, %4 ], [ null, %6 ]
  ret ptr %.0
}